target datalayout = "e-m:e-p270:32:32-p271:32:32-p272:64:64-i64:64-i128:128-f80:128-n8:16:32:64-S128"
target triple = "x86_64-pc-linux-gnu"

%struct.AVChannelLayout = type { i32, i32, %union.anon, ptr }
%union.anon = type { i64 }
%struct.AVCodecContext = type { ptr, i32, i32, ptr, i32, i32, ptr, ptr, ptr, i64, i32, i32, ptr, i32, %struct.AVRational, %struct.AVRational, %struct.AVRational, i32, i32, i32, i32, i32, %struct.AVRational, i32, i32, i32, i32, i32, i32, i32, i32, i32, i32, i32, ptr, ptr, i32, float, float, float, float, float, float, float, float, float, i32, i32, i32, i32, i32, i32, i32, i32, i32, i32, i32, i32, ptr, ptr, ptr, i32, i32, i32, i32, i32, i32, i32, i32, i32, i32, %struct.AVChannelLayout, i32, i32, i32, i32, i32, i32, i32, i32, ptr, i32, i32, i32, float, float, i32, i32, i32, i32, i32, ptr, i64, i64, float, float, i32, i32, ptr, ptr, i32, i32, i32, i32, i32, ptr, ptr, ptr, ptr, i32, i32, [8 x i64], i32, i32, i32, i32, i32, i32, i32, ptr, ptr, i32, i32, i32, i32, i32, i32, i32, i32, i32, i32, ptr, ptr, i32, i32, ptr, ptr, ptr, ptr, i32, i32, i64, i32, i32, i64, ptr, i64, ptr, i32, ptr, i32 }
%struct.AVRational = type { i32, i32 }
%struct.AptXEncContext = type { %struct.AptXContext, %struct.AudioFrameQueue }
%struct.AptXContext = type { i32, i32, i32, [2 x %struct.Channel] }
%struct.Channel = type { i32, i32, [4 x i32], %struct.QMFAnalysis, [4 x %struct.Quantize], [4 x %struct.InvertQuantize], [4 x %struct.Prediction] }
%struct.QMFAnalysis = type { [2 x %struct.FilterSignal], [2 x [2 x %struct.FilterSignal]] }
%struct.FilterSignal = type { i32, [32 x i32] }
%struct.Quantize = type { i32, i32, i32 }
%struct.InvertQuantize = type { i32, i32, i32 }
%struct.Prediction = type { [2 x i32], [2 x i32], [24 x i32], i32, [48 x i32], i32, i32, i32 }
%struct.AudioFrameQueue = type { ptr, i32, i32, ptr, i32, i32 }
%struct.AVCodecInternal = type { i32, i32, i32, ptr, ptr, ptr, ptr, ptr, ptr, ptr, i32, ptr, ptr, ptr, i32, i32, ptr, i32, ptr, ptr, i32, i32 }

; Function Attrs: cold nounwind optsize uwtable
define internal i32 @aptx_encode_init(ptr noundef %0) #0 {
  %2 = alloca ptr, align 8
  %3 = alloca ptr, align 8
  store ptr %0, ptr %2, align 8, !tbaa !4
  call void @llvm.lifetime.start.p0(i64 8, ptr %3) #7
  %4 = load ptr, ptr %2, align 8, !tbaa !4
  %5 = getelementptr inbounds nuw %struct.AVCodecContext, ptr %4, i32 0, i32 6
  %6 = load ptr, ptr %5, align 8, !tbaa !9
  store ptr %6, ptr %3, align 8, !tbaa !29
  %7 = load ptr, ptr %2, align 8, !tbaa !4
  %8 = load ptr, ptr %3, align 8, !tbaa !29
  %9 = getelementptr inbounds nuw %struct.AptXEncContext, ptr %8, i32 0, i32 1
  call void @ff_af_queue_init(ptr noundef %7, ptr noundef %9)
  %10 = load ptr, ptr %2, align 8, !tbaa !4
  %11 = getelementptr inbounds nuw %struct.AVCodecContext, ptr %10, i32 0, i32 72
  %12 = load i32, ptr %11, align 8, !tbaa !31
  %13 = icmp ne i32 %12, 0
  br i1 %13, label %14, label %20

14:                                               ; preds = %1
  %15 = load ptr, ptr %2, align 8, !tbaa !4
  %16 = getelementptr inbounds nuw %struct.AVCodecContext, ptr %15, i32 0, i32 72
  %17 = load i32, ptr %16, align 8, !tbaa !31
  %18 = srem i32 %17, 4
  %19 = icmp ne i32 %18, 0
  br i1 %19, label %20, label %23

20:                                               ; preds = %14, %1
  %21 = load ptr, ptr %2, align 8, !tbaa !4
  %22 = getelementptr inbounds nuw %struct.AVCodecContext, ptr %21, i32 0, i32 72
  store i32 1024, ptr %22, align 8, !tbaa !31
  br label %23

23:                                               ; preds = %20, %14
  %24 = load ptr, ptr %2, align 8, !tbaa !4
  %25 = getelementptr inbounds nuw %struct.AVCodecContext, ptr %24, i32 0, i32 7
  %26 = load ptr, ptr %25, align 8, !tbaa !32
  %27 = getelementptr inbounds nuw %struct.AVCodecInternal, ptr %26, i32 0, i32 2
  store i32 4, ptr %27, align 8, !tbaa !33
  %28 = load ptr, ptr %2, align 8, !tbaa !4
  %29 = call i32 @ff_aptx_init(ptr noundef %28)
  call void @llvm.lifetime.end.p0(i64 8, ptr %3) #7
  ret i32 %29
}