; Function Attrs: cold nounwind optsize uwtable
define internal i32 @aptx_encode_init(ptr noundef %0) #0 {
  %2 = getelementptr inbounds nuw i8, ptr %0, i64 32
  %3 = load ptr, ptr %2, align 8, !tbaa !4
  %4 = getelementptr inbounds nuw i8, ptr %3, i64 4400
  tail call void @ff_af_queue_init(ptr noundef %0, ptr noundef nonnull %4) #5
  %5 = getelementptr inbounds nuw i8, ptr %0, i64 376
  %6 = load i32, ptr %5, align 8, !tbaa !27
  %.not = icmp ne i32 %6, 0
  %7 = and i32 %6, 3
  %.not8 = icmp eq i32 %7, 0
  %or.cond = and i1 %.not, %.not8
  br i1 %or.cond, label %9, label %8

8:                                                ; preds = %1
  store i32 1024, ptr %5, align 8, !tbaa !27
  br label %9

9:                                                ; preds = %1, %8
  %10 = getelementptr inbounds nuw i8, ptr %0, i64 40
  %11 = load ptr, ptr %10, align 8, !tbaa !28
  %12 = getelementptr inbounds nuw i8, ptr %11, i64 8
  store i32 4, ptr %12, align 8, !tbaa !29
  %13 = tail call i32 @ff_aptx_init(ptr noundef nonnull %0) #5
  ret i32 %13
}